	.file	"square.c"
	.text
	.globl	square_add
	.type	square_add, @function
square_add:
.LFB0:
	.cfi_startproc
	pushq	%rbp
	.cfi_def_cfa_offset 16
	.cfi_offset 6, -16
	movq	%rsp, %rbp
	.cfi_def_cfa_register 6
	movl	%edi, -20(%rbp)
	movl	%esi, -24(%rbp)
	movl	-20(%rbp), %eax
	imull	-20(%rbp), %eax
	movl	%eax, -12(%rbp)
	movl	-24(%rbp), %eax
	imull	-24(%rbp), %eax
	movl	%eax, -8(%rbp)
	movl	-12(%rbp), %edx
	movl	-8(%rbp), %eax
	addl	%edx, %eax
	movl	%eax, -4(%rbp)
	movl	-4(%rbp), %eax
	popq	%rbp
	.cfi_def_cfa 7, 8
	ret
	.cfi_endproc
.LFE0:
	.size	square_add, .-square_add
	.globl	main
	.type	main, @function
main:
.LFB1:
	.cfi_startproc
	pushq	%rbp
	.cfi_def_cfa_offset 16
	.cfi_offset 6, -16
	movq	%rsp, %rbp
	.cfi_def_cfa_register 6
	subq	$16, %rsp
	movl	$5, -12(%rbp)
	movl	$6, -8(%rbp)
	movl	-8(%rbp), %edx
	movl	-12(%rbp), %eax
	movl	%edx, %esi
	movl	%eax, %edi
	call	square_add
	movl	%eax, -4(%rbp)
	movl	$0, %eax
	leave
	.cfi_def_cfa 7, 8
	ret
	.cfi_endproc
.LFE1:
	.size	main, .-main
	.ident	"GCC: (Ubuntu 8.3.0-6ubuntu1) 8.3.0"
	.section	.note.GNU-stack,"",@progbits
