	.text
	.file	"loop_benchmark.cc"
	.globl	main                    # -- Begin function main
	.p2align	4, 0x90
	.type	main,@function
main:                                   # @main
	.cfi_startproc
# %bb.0:
	pushq	%rbp
	.cfi_def_cfa_offset 16
	pushq	%rbx
	.cfi_def_cfa_offset 24
	pushq	%rax
	.cfi_def_cfa_offset 32
	.cfi_offset %rbx, -24
	.cfi_offset %rbp, -16
	movl	$100000, %ebp           # imm = 0x186A0
	xorl	%ebx, %ebx
	.p2align	4, 0x90
.LBB0_1:                                # =>This Inner Loop Header: Depth=1
	#APP
	#NO_APP
	callq	rand
	cltq
	imulq	$1717986919, %rax, %rcx # imm = 0x66666667
	movq	%rcx, %rdx
	shrq	$63, %rdx
	sarq	$34, %rcx
	addl	%edx, %ecx
	addl	%ecx, %ecx
	leal	(%rcx,%rcx,4), %ecx
	subl	%ecx, %eax
	cltq
	addq	%rax, %rbx
	addl	$-1, %ebp
	jne	.LBB0_1
# %bb.2:
	movl	%ebx, %eax
	addq	$8, %rsp
	.cfi_def_cfa_offset 24
	popq	%rbx
	.cfi_def_cfa_offset 16
	popq	%rbp
	.cfi_def_cfa_offset 8
	retq
.Lfunc_end0:
	.size	main, .Lfunc_end0-main
	.cfi_endproc
                                        # -- End function

	.ident	"clang version 8.0.1-svn363010-1~exp1~20190611011222.76 (branches/release_80)"
	.section	".note.GNU-stack","",@progbits
	.addrsig
